target datalayout = "e-m:e-p270:32:32-p271:32:32-p272:64:64-i64:64-i128:128-f80:128-n8:16:32:64-S128"
target triple = "x86_64-pc-linux-gnu"

%"class.absl::base_internal::ErrnoSaver" = type { i32 }

$_ZN4absl13base_internal10ErrnoSaverC2Ev = comdat any

$_ZN4absl13base_internal10ErrnoSaverD2Ev = comdat any

@.str = private unnamed_addr constant [146 x i8] c"generated/home/dtcxzyw/WorkSpace/Projects/compilers/llvm-opt-benchmark/bench/abseil-cpp/abseil-cpp/absl/debugging/internal/address_is_readable.cc\00", align 1
@.str.1 = private unnamed_addr constant [20 x i8] c"Check %s failed: %s\00", align 1
@.str.2 = private unnamed_addr constant [56 x i8] c"syscall(SYS_rt_sigprocmask, ~0, addr, nullptr, 8) == -1\00", align 1
@.str.3 = private unnamed_addr constant [19 x i8] c"unexpected success\00", align 1
@.str.4 = private unnamed_addr constant [35 x i8] c"errno == EFAULT || errno == EINVAL\00", align 1
@.str.5 = private unnamed_addr constant [17 x i8] c"unexpected errno\00", align 1

; Function Attrs: mustprogress uwtable
define dso_local noundef zeroext i1 @_ZN4absl18debugging_internal17AddressIsReadableEPKv(ptr noundef %0) #0 personality ptr @__gxx_personality_v0 {
  %2 = alloca i1, align 1
  %3 = alloca ptr, align 8
  %4 = alloca i64, align 8
  %5 = alloca i32, align 4
  %6 = alloca %"class.absl::base_internal::ErrnoSaver", align 4
  %7 = alloca ptr, align 8
  %8 = alloca ptr, align 8
  %9 = alloca i32, align 4
  %10 = alloca ptr, align 8
  store ptr %0, ptr %3, align 8, !tbaa !4
  call void @llvm.lifetime.start.p0(i64 8, ptr %4) #7
  %11 = load ptr, ptr %3, align 8, !tbaa !4
  %12 = ptrtoint ptr %11 to i64
  %13 = and i64 %12, -8
  store i64 %13, ptr %4, align 8, !tbaa !8
  %14 = load i64, ptr %4, align 8, !tbaa !8
  %15 = inttoptr i64 %14 to ptr
  store ptr %15, ptr %3, align 8, !tbaa !4
  %16 = load ptr, ptr %3, align 8, !tbaa !4
  %17 = icmp eq ptr %16, null
  br i1 %17, label %18, label %19

18:                                               ; preds = %1
  store i1 false, ptr %2, align 1
  store i32 1, ptr %5, align 4
  br label %76

19:                                               ; preds = %1
  call void @llvm.lifetime.start.p0(i64 4, ptr %6) #7
  call void @_ZN4absl13base_internal10ErrnoSaverC2Ev(ptr noundef nonnull align 4 dereferenceable(4) %6)
  br label %20

20:                                               ; preds = %19
  %21 = load ptr, ptr %3, align 8, !tbaa !4
  %22 = call i64 (i64, ...) @syscall(i64 noundef 14, i32 noundef -1, ptr noundef %21, ptr noundef null, i32 noundef 8) #7
  %23 = icmp eq i64 %22, -1
  %24 = xor i1 %23, true
  %25 = zext i1 %24 to i64
  %26 = call i64 @llvm.expect.i64(i64 %25, i64 0)
  %27 = icmp ne i64 %26, 0
  br i1 %27, label %28, label %40

28:                                               ; preds = %20
  br label %29

29:                                               ; preds = %28
  call void @llvm.lifetime.start.p0(i64 8, ptr %7) #7
  store ptr getelementptr (i8, ptr @.str, i64 123), ptr %7, align 8, !tbaa !10
  invoke void (i32, ptr, i32, ptr, ...) @_ZN4absl16raw_log_internal6RawLogENS_11LogSeverityEPKciS3_z(i32 noundef 3, ptr noundef getelementptr (i8, ptr @.str, i64 123), i32 noundef 89, ptr noundef @.str.1, ptr noundef @.str.2, ptr noundef @.str.3)
          to label %30 unwind label %32

30:                                               ; preds = %29
  br label %31

31:                                               ; preds = %30
  unreachable

32:                                               ; preds = %29
  %33 = landingpad { ptr, i32 }
          cleanup
  %34 = extractvalue { ptr, i32 } %33, 0
  store ptr %34, ptr %8, align 8
  %35 = extractvalue { ptr, i32 } %33, 1
  store i32 %35, ptr %9, align 4
  call void @llvm.lifetime.end.p0(i64 8, ptr %7) #7
  br label %75

36:                                               ; No predecessors!
  br label %37

37:                                               ; preds = %36
  call void @llvm.lifetime.end.p0(i64 8, ptr %7) #7
  br label %38

38:                                               ; preds = %37
  br label %39

39:                                               ; preds = %38
  br label %40

40:                                               ; preds = %39, %20
  br label %41

41:                                               ; preds = %40
  br label %42

42:                                               ; preds = %41
  br label %43

43:                                               ; preds = %42
  %44 = call ptr @__errno_location() #8
  %45 = load i32, ptr %44, align 4, !tbaa !12
  %46 = icmp eq i32 %45, 14
  br i1 %46, label %51, label %47

47:                                               ; preds = %43
  %48 = call ptr @__errno_location() #8
  %49 = load i32, ptr %48, align 4, !tbaa !12
  %50 = icmp eq i32 %49, 22
  br label %51

51:                                               ; preds = %47, %43
  %52 = phi i1 [ true, %43 ], [ %50, %47 ]
  %53 = xor i1 %52, true
  %54 = zext i1 %53 to i64
  %55 = call i64 @llvm.expect.i64(i64 %54, i64 0)
  %56 = icmp ne i64 %55, 0
  br i1 %56, label %57, label %69

57:                                               ; preds = %51
  br label %58

58:                                               ; preds = %57
  call void @llvm.lifetime.start.p0(i64 8, ptr %10) #7
  store ptr getelementptr (i8, ptr @.str, i64 123), ptr %10, align 8, !tbaa !10
  invoke void (i32, ptr, i32, ptr, ...) @_ZN4absl16raw_log_internal6RawLogENS_11LogSeverityEPKciS3_z(i32 noundef 3, ptr noundef getelementptr (i8, ptr @.str, i64 123), i32 noundef 90, ptr noundef @.str.1, ptr noundef @.str.4, ptr noundef @.str.5)
          to label %59 unwind label %61

59:                                               ; preds = %58
  br label %60

60:                                               ; preds = %59
  unreachable

61:                                               ; preds = %58
  %62 = landingpad { ptr, i32 }
          cleanup
  %63 = extractvalue { ptr, i32 } %62, 0
  store ptr %63, ptr %8, align 8
  %64 = extractvalue { ptr, i32 } %62, 1
  store i32 %64, ptr %9, align 4
  call void @llvm.lifetime.end.p0(i64 8, ptr %10) #7
  br label %75

65:                                               ; No predecessors!
  br label %66

66:                                               ; preds = %65
  call void @llvm.lifetime.end.p0(i64 8, ptr %10) #7
  br label %67

67:                                               ; preds = %66
  br label %68

68:                                               ; preds = %67
  br label %69

69:                                               ; preds = %68, %51
  br label %70

70:                                               ; preds = %69
  br label %71

71:                                               ; preds = %70
  %72 = call ptr @__errno_location() #8
  %73 = load i32, ptr %72, align 4, !tbaa !12
  %74 = icmp ne i32 %73, 14
  store i1 %74, ptr %2, align 1
  store i32 1, ptr %5, align 4
  call void @_ZN4absl13base_internal10ErrnoSaverD2Ev(ptr noundef nonnull align 4 dereferenceable(4) %6) #7
  call void @llvm.lifetime.end.p0(i64 4, ptr %6) #7
  br label %76

75:                                               ; preds = %61, %32
  call void @_ZN4absl13base_internal10ErrnoSaverD2Ev(ptr noundef nonnull align 4 dereferenceable(4) %6) #7
  call void @llvm.lifetime.end.p0(i64 4, ptr %6) #7
  call void @llvm.lifetime.end.p0(i64 8, ptr %4) #7
  br label %78

76:                                               ; preds = %71, %18
  call void @llvm.lifetime.end.p0(i64 8, ptr %4) #7
  %77 = load i1, ptr %2, align 1
  ret i1 %77

78:                                               ; preds = %75
  %79 = load ptr, ptr %8, align 8
  %80 = load i32, ptr %9, align 4
  %81 = insertvalue { ptr, i32 } poison, ptr %79, 0
  %82 = insertvalue { ptr, i32 } %81, i32 %80, 1
  resume { ptr, i32 } %82
}

; Function Attrs: nocallback nofree nosync nounwind willreturn memory(argmem: readwrite)
declare void @llvm.lifetime.start.p0(i64 immarg, ptr captures(none)) #1

; Function Attrs: mustprogress nounwind uwtable
define linkonce_odr dso_local void @_ZN4absl13base_internal10ErrnoSaverC2Ev(ptr noundef nonnull align 4 dereferenceable(4) %0) unnamed_addr #2 comdat align 2 {
  %2 = alloca ptr, align 8
  store ptr %0, ptr %2, align 8, !tbaa !14
  %3 = load ptr, ptr %2, align 8
  %4 = getelementptr inbounds nuw %"class.absl::base_internal::ErrnoSaver", ptr %3, i32 0, i32 0
  %5 = call ptr @__errno_location() #8
  %6 = load i32, ptr %5, align 4, !tbaa !12
  store i32 %6, ptr %4, align 4, !tbaa !16
  ret void
}

; Function Attrs: nounwind
declare i64 @syscall(i64 noundef, ...) #3

; Function Attrs: nocallback nofree nosync nounwind willreturn memory(none)
declare i64 @llvm.expect.i64(i64, i64) #4

declare void @_ZN4absl16raw_log_internal6RawLogENS_11LogSeverityEPKciS3_z(i32 noundef, ptr noundef, i32 noundef, ptr noundef, ...) #5

declare i32 @__gxx_personality_v0(...)

; Function Attrs: nocallback nofree nosync nounwind willreturn memory(argmem: readwrite)
declare void @llvm.lifetime.end.p0(i64 immarg, ptr captures(none)) #1

; Function Attrs: nounwind willreturn memory(none)
declare ptr @__errno_location() #6

; Function Attrs: mustprogress nounwind uwtable
define linkonce_odr dso_local void @_ZN4absl13base_internal10ErrnoSaverD2Ev(ptr noundef nonnull align 4 dereferenceable(4) %0) unnamed_addr #2 comdat align 2 {
  %2 = alloca ptr, align 8
  store ptr %0, ptr %2, align 8, !tbaa !14
  %3 = load ptr, ptr %2, align 8
  %4 = getelementptr inbounds nuw %"class.absl::base_internal::ErrnoSaver", ptr %3, i32 0, i32 0
  %5 = load i32, ptr %4, align 4, !tbaa !16
  %6 = call ptr @__errno_location() #8
  store i32 %5, ptr %6, align 4, !tbaa !12
  ret void
}


!llvm.module.flags = !{!0, !1, !2, !3}

!0 = !{i32 1, !"wchar_size", i32 4}
!1 = !{i32 8, !"PIC Level", i32 2}
!2 = !{i32 7, !"PIE Level", i32 2}
!3 = !{i32 7, !"uwtable", i32 2}
!4 = !{!5, !5, i64 0}
!5 = !{!"any pointer", !6, i64 0}
!6 = !{!"omnipotent char", !7, i64 0}
!7 = !{!"Simple C++ TBAA"}
!8 = !{!9, !9, i64 0}
!9 = !{!"long", !6, i64 0}
!10 = !{!11, !11, i64 0}
!11 = !{!"p1 omnipotent char", !5, i64 0}
!12 = !{!13, !13, i64 0}
!13 = !{!"int", !6, i64 0}
!14 = !{!15, !15, i64 0}
!15 = !{!"p1 _ZTSN4absl13base_internal10ErrnoSaverE", !5, i64 0}
!16 = !{!17, !13, i64 0}
!17 = !{!"_ZTSN4absl13base_internal10ErrnoSaverE", !13, i64 0}
